ARM GAS  /tmp/ccGPBS9i.s 			page 1


   1              		.cpu cortex-m4
   2              		.arch armv7e-m
   3              		.fpu fpv4-sp-d16
   4              		.eabi_attribute 27, 1
   5              		.eabi_attribute 28, 1
   6              		.eabi_attribute 20, 1
   7              		.eabi_attribute 21, 1
   8              		.eabi_attribute 23, 3
   9              		.eabi_attribute 24, 1
  10              		.eabi_attribute 25, 1
  11              		.eabi_attribute 26, 1
  12              		.eabi_attribute 30, 1
  13              		.eabi_attribute 34, 1
  14              		.eabi_attribute 18, 4
  15              		.file	"arm_fir_init_f32.c"
  16              		.text
  17              	.Ltext0:
  18              		.cfi_sections	.debug_frame
  19              		.file 1 "Drivers/CMSIS/DSP/Source/FilteringFunctions/arm_fir_init_f32.c"
  20              		.section	.text.arm_fir_init_f32,"ax",%progbits
  21              		.align	1
  22              		.global	arm_fir_init_f32
  23              		.syntax unified
  24              		.thumb
  25              		.thumb_func
  27              	arm_fir_init_f32:
  28              	.LVL0:
  29              	.LFB127:
   1:Drivers/CMSIS/DSP/Source/FilteringFunctions/arm_fir_init_f32.c **** /* ----------------------------------------------------------------------
   2:Drivers/CMSIS/DSP/Source/FilteringFunctions/arm_fir_init_f32.c ****  * Project:      CMSIS DSP Library
   3:Drivers/CMSIS/DSP/Source/FilteringFunctions/arm_fir_init_f32.c ****  * Title:        arm_fir_init_f32.c
   4:Drivers/CMSIS/DSP/Source/FilteringFunctions/arm_fir_init_f32.c ****  * Description:  Floating-point FIR filter initialization function
   5:Drivers/CMSIS/DSP/Source/FilteringFunctions/arm_fir_init_f32.c ****  *
   6:Drivers/CMSIS/DSP/Source/FilteringFunctions/arm_fir_init_f32.c ****  * $Date:        23 April 2021
   7:Drivers/CMSIS/DSP/Source/FilteringFunctions/arm_fir_init_f32.c ****  * $Revision:    V1.9.0
   8:Drivers/CMSIS/DSP/Source/FilteringFunctions/arm_fir_init_f32.c ****  *
   9:Drivers/CMSIS/DSP/Source/FilteringFunctions/arm_fir_init_f32.c ****  * Target Processor: Cortex-M and Cortex-A cores
  10:Drivers/CMSIS/DSP/Source/FilteringFunctions/arm_fir_init_f32.c ****  * -------------------------------------------------------------------- */
  11:Drivers/CMSIS/DSP/Source/FilteringFunctions/arm_fir_init_f32.c **** /*
  12:Drivers/CMSIS/DSP/Source/FilteringFunctions/arm_fir_init_f32.c ****  * Copyright (C) 2010-2021 ARM Limited or its affiliates. All rights reserved.
  13:Drivers/CMSIS/DSP/Source/FilteringFunctions/arm_fir_init_f32.c ****  *
  14:Drivers/CMSIS/DSP/Source/FilteringFunctions/arm_fir_init_f32.c ****  * SPDX-License-Identifier: Apache-2.0
  15:Drivers/CMSIS/DSP/Source/FilteringFunctions/arm_fir_init_f32.c ****  *
  16:Drivers/CMSIS/DSP/Source/FilteringFunctions/arm_fir_init_f32.c ****  * Licensed under the Apache License, Version 2.0 (the License); you may
  17:Drivers/CMSIS/DSP/Source/FilteringFunctions/arm_fir_init_f32.c ****  * not use this file except in compliance with the License.
  18:Drivers/CMSIS/DSP/Source/FilteringFunctions/arm_fir_init_f32.c ****  * You may obtain a copy of the License at
  19:Drivers/CMSIS/DSP/Source/FilteringFunctions/arm_fir_init_f32.c ****  *
  20:Drivers/CMSIS/DSP/Source/FilteringFunctions/arm_fir_init_f32.c ****  * www.apache.org/licenses/LICENSE-2.0
  21:Drivers/CMSIS/DSP/Source/FilteringFunctions/arm_fir_init_f32.c ****  *
  22:Drivers/CMSIS/DSP/Source/FilteringFunctions/arm_fir_init_f32.c ****  * Unless required by applicable law or agreed to in writing, software
  23:Drivers/CMSIS/DSP/Source/FilteringFunctions/arm_fir_init_f32.c ****  * distributed under the License is distributed on an AS IS BASIS, WITHOUT
  24:Drivers/CMSIS/DSP/Source/FilteringFunctions/arm_fir_init_f32.c ****  * WARRANTIES OR CONDITIONS OF ANY KIND, either express or implied.
  25:Drivers/CMSIS/DSP/Source/FilteringFunctions/arm_fir_init_f32.c ****  * See the License for the specific language governing permissions and
  26:Drivers/CMSIS/DSP/Source/FilteringFunctions/arm_fir_init_f32.c ****  * limitations under the License.
  27:Drivers/CMSIS/DSP/Source/FilteringFunctions/arm_fir_init_f32.c ****  */
  28:Drivers/CMSIS/DSP/Source/FilteringFunctions/arm_fir_init_f32.c **** 
  29:Drivers/CMSIS/DSP/Source/FilteringFunctions/arm_fir_init_f32.c **** #include "dsp/filtering_functions.h"
ARM GAS  /tmp/ccGPBS9i.s 			page 2


  30:Drivers/CMSIS/DSP/Source/FilteringFunctions/arm_fir_init_f32.c **** 
  31:Drivers/CMSIS/DSP/Source/FilteringFunctions/arm_fir_init_f32.c **** /**
  32:Drivers/CMSIS/DSP/Source/FilteringFunctions/arm_fir_init_f32.c ****   @ingroup groupFilters
  33:Drivers/CMSIS/DSP/Source/FilteringFunctions/arm_fir_init_f32.c ****  */
  34:Drivers/CMSIS/DSP/Source/FilteringFunctions/arm_fir_init_f32.c **** 
  35:Drivers/CMSIS/DSP/Source/FilteringFunctions/arm_fir_init_f32.c **** /**
  36:Drivers/CMSIS/DSP/Source/FilteringFunctions/arm_fir_init_f32.c ****   @addtogroup FIR
  37:Drivers/CMSIS/DSP/Source/FilteringFunctions/arm_fir_init_f32.c ****   @{
  38:Drivers/CMSIS/DSP/Source/FilteringFunctions/arm_fir_init_f32.c ****  */
  39:Drivers/CMSIS/DSP/Source/FilteringFunctions/arm_fir_init_f32.c **** 
  40:Drivers/CMSIS/DSP/Source/FilteringFunctions/arm_fir_init_f32.c **** /**
  41:Drivers/CMSIS/DSP/Source/FilteringFunctions/arm_fir_init_f32.c ****   @brief         Initialization function for the floating-point FIR filter.
  42:Drivers/CMSIS/DSP/Source/FilteringFunctions/arm_fir_init_f32.c ****   @param[in,out] S          points to an instance of the floating-point FIR filter structure
  43:Drivers/CMSIS/DSP/Source/FilteringFunctions/arm_fir_init_f32.c ****   @param[in] 	 numTaps    number of filter coefficients in the filter
  44:Drivers/CMSIS/DSP/Source/FilteringFunctions/arm_fir_init_f32.c ****   @param[in]     pCoeffs    points to the filter coefficients buffer
  45:Drivers/CMSIS/DSP/Source/FilteringFunctions/arm_fir_init_f32.c ****   @param[in]     pState     points to the state buffer
  46:Drivers/CMSIS/DSP/Source/FilteringFunctions/arm_fir_init_f32.c ****   @param[in]     blockSize  number of samples processed per call
  47:Drivers/CMSIS/DSP/Source/FilteringFunctions/arm_fir_init_f32.c ****   @return        none
  48:Drivers/CMSIS/DSP/Source/FilteringFunctions/arm_fir_init_f32.c **** 
  49:Drivers/CMSIS/DSP/Source/FilteringFunctions/arm_fir_init_f32.c ****   @par           Details
  50:Drivers/CMSIS/DSP/Source/FilteringFunctions/arm_fir_init_f32.c ****                    <code>pCoeffs</code> points to the array of filter coefficients stored in time r
  51:Drivers/CMSIS/DSP/Source/FilteringFunctions/arm_fir_init_f32.c ****   <pre>
  52:Drivers/CMSIS/DSP/Source/FilteringFunctions/arm_fir_init_f32.c ****       {b[numTaps-1], b[numTaps-2], b[N-2], ..., b[1], b[0]}
  53:Drivers/CMSIS/DSP/Source/FilteringFunctions/arm_fir_init_f32.c ****   </pre>
  54:Drivers/CMSIS/DSP/Source/FilteringFunctions/arm_fir_init_f32.c ****   @par
  55:Drivers/CMSIS/DSP/Source/FilteringFunctions/arm_fir_init_f32.c ****                    <code>pState</code> points to the array of state variables and some working memo
  56:Drivers/CMSIS/DSP/Source/FilteringFunctions/arm_fir_init_f32.c ****                    <code>pState</code> is of length <code>numTaps+blockSize-1</code> samples (excep
  57:Drivers/CMSIS/DSP/Source/FilteringFunctions/arm_fir_init_f32.c ****   @par          Initialization of Helium version
  58:Drivers/CMSIS/DSP/Source/FilteringFunctions/arm_fir_init_f32.c ****                  For Helium version the array of coefficients must be a multiple of 4 (4a) even if 
  59:Drivers/CMSIS/DSP/Source/FilteringFunctions/arm_fir_init_f32.c ****                  then 4a coefficients are defined in the FIR. The additional coefficients 
  60:Drivers/CMSIS/DSP/Source/FilteringFunctions/arm_fir_init_f32.c ****                  (4a - numTaps) must be set to 0.
  61:Drivers/CMSIS/DSP/Source/FilteringFunctions/arm_fir_init_f32.c ****                  numTaps is still set to its right value in the init function. It means that
  62:Drivers/CMSIS/DSP/Source/FilteringFunctions/arm_fir_init_f32.c ****                  the implementation may require to read more coefficients due to the vectorization 
  63:Drivers/CMSIS/DSP/Source/FilteringFunctions/arm_fir_init_f32.c ****                  to avoid having to manage too many different cases in the code.
  64:Drivers/CMSIS/DSP/Source/FilteringFunctions/arm_fir_init_f32.c **** 
  65:Drivers/CMSIS/DSP/Source/FilteringFunctions/arm_fir_init_f32.c ****   @par          Helium state buffer
  66:Drivers/CMSIS/DSP/Source/FilteringFunctions/arm_fir_init_f32.c ****                  The state buffer must contain some additional temporary data
  67:Drivers/CMSIS/DSP/Source/FilteringFunctions/arm_fir_init_f32.c ****                  used during the computation but which is not the state of the FIR.
  68:Drivers/CMSIS/DSP/Source/FilteringFunctions/arm_fir_init_f32.c ****                  The first blockSize samples are temporary data.
  69:Drivers/CMSIS/DSP/Source/FilteringFunctions/arm_fir_init_f32.c ****                  The remaining samples are the state of the FIR filter.
  70:Drivers/CMSIS/DSP/Source/FilteringFunctions/arm_fir_init_f32.c ****                  So the state buffer has size <code> numTaps + 2 * blockSize - 1 </code>
  71:Drivers/CMSIS/DSP/Source/FilteringFunctions/arm_fir_init_f32.c **** 
  72:Drivers/CMSIS/DSP/Source/FilteringFunctions/arm_fir_init_f32.c ****  */
  73:Drivers/CMSIS/DSP/Source/FilteringFunctions/arm_fir_init_f32.c **** 
  74:Drivers/CMSIS/DSP/Source/FilteringFunctions/arm_fir_init_f32.c **** void arm_fir_init_f32(
  75:Drivers/CMSIS/DSP/Source/FilteringFunctions/arm_fir_init_f32.c ****         arm_fir_instance_f32 * S,
  76:Drivers/CMSIS/DSP/Source/FilteringFunctions/arm_fir_init_f32.c ****         uint16_t numTaps,
  77:Drivers/CMSIS/DSP/Source/FilteringFunctions/arm_fir_init_f32.c ****   const float32_t * pCoeffs,
  78:Drivers/CMSIS/DSP/Source/FilteringFunctions/arm_fir_init_f32.c ****         float32_t * pState,
  79:Drivers/CMSIS/DSP/Source/FilteringFunctions/arm_fir_init_f32.c ****         uint32_t blockSize)
  80:Drivers/CMSIS/DSP/Source/FilteringFunctions/arm_fir_init_f32.c **** {
  30              		.loc 1 80 1 view -0
  31              		.cfi_startproc
  32              		@ args = 4, pretend = 0, frame = 0
  33              		@ frame_needed = 0, uses_anonymous_args = 0
  34              		.loc 1 80 1 is_stmt 0 view .LVU1
  35 0000 38B5     		push	{r3, r4, r5, lr}
ARM GAS  /tmp/ccGPBS9i.s 			page 3


  36              	.LCFI0:
  37              		.cfi_def_cfa_offset 16
  38              		.cfi_offset 3, -16
  39              		.cfi_offset 4, -12
  40              		.cfi_offset 5, -8
  41              		.cfi_offset 14, -4
  42 0002 0446     		mov	r4, r0
  43 0004 1D46     		mov	r5, r3
  81:Drivers/CMSIS/DSP/Source/FilteringFunctions/arm_fir_init_f32.c ****   /* Assign filter taps */
  82:Drivers/CMSIS/DSP/Source/FilteringFunctions/arm_fir_init_f32.c ****   S->numTaps = numTaps;
  44              		.loc 1 82 3 is_stmt 1 view .LVU2
  45              		.loc 1 82 14 is_stmt 0 view .LVU3
  46 0006 0180     		strh	r1, [r0]	@ movhi
  83:Drivers/CMSIS/DSP/Source/FilteringFunctions/arm_fir_init_f32.c **** 
  84:Drivers/CMSIS/DSP/Source/FilteringFunctions/arm_fir_init_f32.c ****   /* Assign coefficient pointer */
  85:Drivers/CMSIS/DSP/Source/FilteringFunctions/arm_fir_init_f32.c ****   S->pCoeffs = pCoeffs;
  47              		.loc 1 85 3 is_stmt 1 view .LVU4
  48              		.loc 1 85 14 is_stmt 0 view .LVU5
  49 0008 8260     		str	r2, [r0, #8]
  86:Drivers/CMSIS/DSP/Source/FilteringFunctions/arm_fir_init_f32.c **** 
  87:Drivers/CMSIS/DSP/Source/FilteringFunctions/arm_fir_init_f32.c ****   /* Clear state buffer. The size is always (blockSize + numTaps - 1) */
  88:Drivers/CMSIS/DSP/Source/FilteringFunctions/arm_fir_init_f32.c **** #if defined(ARM_MATH_MVEF) && !defined(ARM_MATH_AUTOVECTORIZE)
  89:Drivers/CMSIS/DSP/Source/FilteringFunctions/arm_fir_init_f32.c ****   memset(pState, 0, (numTaps + (blockSize - 1U) + blockSize) * sizeof(float32_t));
  90:Drivers/CMSIS/DSP/Source/FilteringFunctions/arm_fir_init_f32.c **** #else
  91:Drivers/CMSIS/DSP/Source/FilteringFunctions/arm_fir_init_f32.c ****   memset(pState, 0, (numTaps + (blockSize - 1U)) * sizeof(float32_t));
  50              		.loc 1 91 3 is_stmt 1 view .LVU6
  51              		.loc 1 91 30 is_stmt 0 view .LVU7
  52 000a 049B     		ldr	r3, [sp, #16]
  53              	.LVL1:
  54              		.loc 1 91 30 view .LVU8
  55 000c 1944     		add	r1, r1, r3
  56              	.LVL2:
  57              		.loc 1 91 30 view .LVU9
  58 000e 4A1E     		subs	r2, r1, #1
  59              	.LVL3:
  60              		.loc 1 91 3 view .LVU10
  61 0010 9200     		lsls	r2, r2, #2
  62 0012 0021     		movs	r1, #0
  63 0014 2846     		mov	r0, r5
  64              	.LVL4:
  65              		.loc 1 91 3 view .LVU11
  66 0016 FFF7FEFF 		bl	memset
  67              	.LVL5:
  92:Drivers/CMSIS/DSP/Source/FilteringFunctions/arm_fir_init_f32.c **** #endif
  93:Drivers/CMSIS/DSP/Source/FilteringFunctions/arm_fir_init_f32.c ****   /* Assign state pointer */
  94:Drivers/CMSIS/DSP/Source/FilteringFunctions/arm_fir_init_f32.c ****   S->pState = pState;
  68              		.loc 1 94 3 is_stmt 1 view .LVU12
  69              		.loc 1 94 13 is_stmt 0 view .LVU13
  70 001a 6560     		str	r5, [r4, #4]
  95:Drivers/CMSIS/DSP/Source/FilteringFunctions/arm_fir_init_f32.c **** }
  71              		.loc 1 95 1 view .LVU14
  72 001c 38BD     		pop	{r3, r4, r5, pc}
  73              		.loc 1 95 1 view .LVU15
  74              		.cfi_endproc
  75              	.LFE127:
  77              		.text
  78              	.Letext0:
ARM GAS  /tmp/ccGPBS9i.s 			page 4


  79              		.file 2 "/nix/store/i3m8xrhhnb7l83cpwdd9rlkcglpnxkw8-gcc-arm-embedded-12.3.rel1/arm-none-eabi/incl
  80              		.file 3 "/nix/store/i3m8xrhhnb7l83cpwdd9rlkcglpnxkw8-gcc-arm-embedded-12.3.rel1/arm-none-eabi/incl
  81              		.file 4 "/nix/store/i3m8xrhhnb7l83cpwdd9rlkcglpnxkw8-gcc-arm-embedded-12.3.rel1/lib/gcc/arm-none-e
  82              		.file 5 "Drivers/CMSIS/DSP/Include/arm_math_types.h"
  83              		.file 6 "Drivers/CMSIS/DSP/Include/dsp/filtering_functions.h"
  84              		.file 7 "/nix/store/i3m8xrhhnb7l83cpwdd9rlkcglpnxkw8-gcc-arm-embedded-12.3.rel1/arm-none-eabi/incl
  85              		.file 8 "<built-in>"
ARM GAS  /tmp/ccGPBS9i.s 			page 5

